target datalayout = "e-m:e-p270:32:32-p271:32:32-p272:64:64-i64:64-i128:128-f80:128-n8:16:32:64-S128"
target triple = "x86_64-pc-linux-gnu"

%struct.Fra_Par_t_ = type { i32, double, i32, i32, double, double, i32, i32, i32, i32, i32, i32, i32, i32, i32, i32, i32, i32, i32, i32, i32, i32, i32, i32, i32 }
%struct.Fra_Man_t_ = type { ptr, ptr, ptr, i32, ptr, i32, ptr, ptr, ptr, i32, ptr, ptr, ptr, ptr, i32, ptr, i64, i64, ptr, ptr, i32, ptr, i32, i32, i32, i32, i32, i32, i32, i32, i32, i32, i32, i32, i32, i32, i32, i32, i32, i32, i32, i64, i64, i64, i64, i64, i64, i64, i64, i64, i64, i64 }
%struct.Aig_Man_t_ = type { ptr, ptr, ptr, ptr, ptr, ptr, ptr, %struct.Aig_Obj_t_, i32, i32, i32, i32, i32, i32, [7 x i32], i32, ptr, i32, ptr, i32, ptr, i32, i32, i32, ptr, i32, i32, i32, i32, i32, ptr, ptr, i32, ptr, ptr, i32, ptr, ptr, i32, i32, i32, ptr, ptr, ptr, ptr, ptr, ptr, ptr, ptr, ptr, ptr, ptr, ptr, ptr, ptr, i32, ptr, ptr, ptr, ptr, i32, i64, i64, i64, ptr, ptr }
%struct.Aig_Obj_t_ = type { %union.anon, ptr, ptr, i64, i32, i32, %union.anon.0 }
%union.anon = type { ptr }
%union.anon.0 = type { ptr }
%struct.Vec_Ptr_t_ = type { i32, i32, ptr }
%struct.Vec_Int_t_ = type { i32, i32, ptr }

; Function Attrs: inlinehint nounwind uwtable
define internal void @Vec_IntFree(ptr noundef %0) #4 {
  %2 = alloca ptr, align 8
  store ptr %0, ptr %2, align 8, !tbaa !119
  %3 = load ptr, ptr %2, align 8, !tbaa !119
  %4 = getelementptr inbounds nuw %struct.Vec_Int_t_, ptr %3, i32 0, i32 2
  %5 = load ptr, ptr %4, align 8, !tbaa !120
  %6 = icmp ne ptr %5, null
  br i1 %6, label %7, label %13

7:                                                ; preds = %1
  %8 = load ptr, ptr %2, align 8, !tbaa !119
  %9 = getelementptr inbounds nuw %struct.Vec_Int_t_, ptr %8, i32 0, i32 2
  %10 = load ptr, ptr %9, align 8, !tbaa !120
  call void @free(ptr noundef %10) #10
  %11 = load ptr, ptr %2, align 8, !tbaa !119
  %12 = getelementptr inbounds nuw %struct.Vec_Int_t_, ptr %11, i32 0, i32 2
  store ptr null, ptr %12, align 8, !tbaa !120
  br label %14

13:                                               ; preds = %1
  br label %14

14:                                               ; preds = %13, %7
  %15 = load ptr, ptr %2, align 8, !tbaa !119
  %16 = icmp ne ptr %15, null
  br i1 %16, label %17, label %19

17:                                               ; preds = %14
  %18 = load ptr, ptr %2, align 8, !tbaa !119
  call void @free(ptr noundef %18) #10
  store ptr null, ptr %2, align 8, !tbaa !119
  br label %20

19:                                               ; preds = %14
  br label %20

20:                                               ; preds = %19, %17
  ret void
}

; Function Attrs: inlinehint nounwind uwtable
define internal void @Vec_PtrFree(ptr noundef %0) #4 {
  %2 = alloca ptr, align 8
  store ptr %0, ptr %2, align 8, !tbaa !62
  %3 = load ptr, ptr %2, align 8, !tbaa !62
  %4 = getelementptr inbounds nuw %struct.Vec_Ptr_t_, ptr %3, i32 0, i32 2
  %5 = load ptr, ptr %4, align 8, !tbaa !66
  %6 = icmp ne ptr %5, null
  br i1 %6, label %7, label %13

7:                                                ; preds = %1
  %8 = load ptr, ptr %2, align 8, !tbaa !62
  %9 = getelementptr inbounds nuw %struct.Vec_Ptr_t_, ptr %8, i32 0, i32 2
  %10 = load ptr, ptr %9, align 8, !tbaa !66
  call void @free(ptr noundef %10) #10
  %11 = load ptr, ptr %2, align 8, !tbaa !62
  %12 = getelementptr inbounds nuw %struct.Vec_Ptr_t_, ptr %11, i32 0, i32 2
  store ptr null, ptr %12, align 8, !tbaa !66
  br label %14

13:                                               ; preds = %1
  br label %14

14:                                               ; preds = %13, %7
  %15 = load ptr, ptr %2, align 8, !tbaa !62
  %16 = icmp ne ptr %15, null
  br i1 %16, label %17, label %19

17:                                               ; preds = %14
  %18 = load ptr, ptr %2, align 8, !tbaa !62
  call void @free(ptr noundef %18) #10
  store ptr null, ptr %2, align 8, !tbaa !62
  br label %20

19:                                               ; preds = %14
  br label %20

20:                                               ; preds = %19, %17
  ret void
}

; Function Attrs: nounwind uwtable
define void @Fra_ManStop(ptr noundef %0) #0 {
  %2 = alloca ptr, align 8
  store ptr %0, ptr %2, align 8, !tbaa !26
  %3 = load ptr, ptr %2, align 8, !tbaa !26
  %4 = getelementptr inbounds nuw %struct.Fra_Man_t_, ptr %3, i32 0, i32 0
  %5 = load ptr, ptr %4, align 8, !tbaa !28
  %6 = getelementptr inbounds nuw %struct.Fra_Par_t_, ptr %5, i32 0, i32 9
  %7 = load i32, ptr %6, align 4, !tbaa !84
  %8 = icmp ne i32 %7, 0
  br i1 %8, label %9, label %11

9:                                                ; preds = %1
  %10 = load ptr, ptr %2, align 8, !tbaa !26
  call void @Fra_ManPrint(ptr noundef %10)
  br label %11

11:                                               ; preds = %9, %1
  %12 = load ptr, ptr %2, align 8, !tbaa !26
  %13 = getelementptr inbounds nuw %struct.Fra_Man_t_, ptr %12, i32 0, i32 1
  %14 = load ptr, ptr %13, align 8, !tbaa !40
  %15 = icmp ne ptr %14, null
  br i1 %15, label %16, label %52

16:                                               ; preds = %11
  %17 = load ptr, ptr %2, align 8, !tbaa !26
  %18 = getelementptr inbounds nuw %struct.Fra_Man_t_, ptr %17, i32 0, i32 1
  %19 = load ptr, ptr %18, align 8, !tbaa !40
  %20 = getelementptr inbounds nuw %struct.Aig_Man_t_, ptr %19, i32 0, i32 41
  %21 = load ptr, ptr %20, align 8, !tbaa !85
  %22 = icmp ne ptr %21, null
  br i1 %22, label %23, label %42

23:                                               ; preds = %16
  %24 = load ptr, ptr %2, align 8, !tbaa !26
  %25 = getelementptr inbounds nuw %struct.Fra_Man_t_, ptr %24, i32 0, i32 1
  %26 = load ptr, ptr %25, align 8, !tbaa !40
  %27 = getelementptr inbounds nuw %struct.Aig_Man_t_, ptr %26, i32 0, i32 41
  %28 = load ptr, ptr %27, align 8, !tbaa !85
  %29 = icmp ne ptr %28, null
  br i1 %29, label %30, label %40

30:                                               ; preds = %23
  %31 = load ptr, ptr %2, align 8, !tbaa !26
  %32 = getelementptr inbounds nuw %struct.Fra_Man_t_, ptr %31, i32 0, i32 1
  %33 = load ptr, ptr %32, align 8, !tbaa !40
  %34 = getelementptr inbounds nuw %struct.Aig_Man_t_, ptr %33, i32 0, i32 41
  %35 = load ptr, ptr %34, align 8, !tbaa !85
  call void @free(ptr noundef %35) #10
  %36 = load ptr, ptr %2, align 8, !tbaa !26
  %37 = getelementptr inbounds nuw %struct.Fra_Man_t_, ptr %36, i32 0, i32 1
  %38 = load ptr, ptr %37, align 8, !tbaa !40
  %39 = getelementptr inbounds nuw %struct.Aig_Man_t_, ptr %38, i32 0, i32 41
  store ptr null, ptr %39, align 8, !tbaa !85
  br label %41

40:                                               ; preds = %23
  br label %41

41:                                               ; preds = %40, %30
  br label %42

42:                                               ; preds = %41, %16
  %43 = load ptr, ptr %2, align 8, !tbaa !26
  %44 = getelementptr inbounds nuw %struct.Fra_Man_t_, ptr %43, i32 0, i32 4
  %45 = load ptr, ptr %44, align 8, !tbaa !47
  %46 = load ptr, ptr %2, align 8, !tbaa !26
  %47 = getelementptr inbounds nuw %struct.Fra_Man_t_, ptr %46, i32 0, i32 1
  %48 = load ptr, ptr %47, align 8, !tbaa !40
  %49 = getelementptr inbounds nuw %struct.Aig_Man_t_, ptr %48, i32 0, i32 41
  store ptr %45, ptr %49, align 8, !tbaa !85
  %50 = load ptr, ptr %2, align 8, !tbaa !26
  %51 = getelementptr inbounds nuw %struct.Fra_Man_t_, ptr %50, i32 0, i32 4
  store ptr null, ptr %51, align 8, !tbaa !47
  br label %52

52:                                               ; preds = %42, %11
  %53 = load ptr, ptr %2, align 8, !tbaa !26
  call void @Fra_ManClean(ptr noundef %53, i32 noundef 0)
  %54 = load ptr, ptr %2, align 8, !tbaa !26
  %55 = getelementptr inbounds nuw %struct.Fra_Man_t_, ptr %54, i32 0, i32 21
  %56 = load ptr, ptr %55, align 8, !tbaa !86
  %57 = icmp ne ptr %56, null
  br i1 %57, label %58, label %62

58:                                               ; preds = %52
  %59 = load ptr, ptr %2, align 8, !tbaa !26
  %60 = getelementptr inbounds nuw %struct.Fra_Man_t_, ptr %59, i32 0, i32 21
  %61 = load ptr, ptr %60, align 8, !tbaa !86
  call void @Vec_PtrFree(ptr noundef %61)
  br label %62

62:                                               ; preds = %58, %52
  %63 = load ptr, ptr %2, align 8, !tbaa !26
  %64 = getelementptr inbounds nuw %struct.Fra_Man_t_, ptr %63, i32 0, i32 15
  %65 = load ptr, ptr %64, align 8, !tbaa !45
  %66 = icmp ne ptr %65, null
  br i1 %66, label %67, label %71

67:                                               ; preds = %62
  %68 = load ptr, ptr %2, align 8, !tbaa !26
  %69 = getelementptr inbounds nuw %struct.Fra_Man_t_, ptr %68, i32 0, i32 15
  %70 = load ptr, ptr %69, align 8, !tbaa !45
  call void @Vec_PtrFree(ptr noundef %70)
  br label %71

71:                                               ; preds = %67, %62
  %72 = load ptr, ptr %2, align 8, !tbaa !26
  %73 = getelementptr inbounds nuw %struct.Fra_Man_t_, ptr %72, i32 0, i32 13
  %74 = load ptr, ptr %73, align 8, !tbaa !87
  %75 = icmp ne ptr %74, null
  br i1 %75, label %76, label %80

76:                                               ; preds = %71
  %77 = load ptr, ptr %2, align 8, !tbaa !26
  %78 = getelementptr inbounds nuw %struct.Fra_Man_t_, ptr %77, i32 0, i32 13
  %79 = load ptr, ptr %78, align 8, !tbaa !87
  call void @sat_solver_delete(ptr noundef %79)
  br label %80

80:                                               ; preds = %76, %71
  %81 = load ptr, ptr %2, align 8, !tbaa !26
  %82 = getelementptr inbounds nuw %struct.Fra_Man_t_, ptr %81, i32 0, i32 6
  %83 = load ptr, ptr %82, align 8, !tbaa !46
  %84 = icmp ne ptr %83, null
  br i1 %84, label %85, label %89

85:                                               ; preds = %80
  %86 = load ptr, ptr %2, align 8, !tbaa !26
  %87 = getelementptr inbounds nuw %struct.Fra_Man_t_, ptr %86, i32 0, i32 6
  %88 = load ptr, ptr %87, align 8, !tbaa !46
  call void @Fra_ClassesStop(ptr noundef %88)
  br label %89

89:                                               ; preds = %85, %80
  %90 = load ptr, ptr %2, align 8, !tbaa !26
  %91 = getelementptr inbounds nuw %struct.Fra_Man_t_, ptr %90, i32 0, i32 7
  %92 = load ptr, ptr %91, align 8, !tbaa !88
  %93 = icmp ne ptr %92, null
  br i1 %93, label %94, label %98

94:                                               ; preds = %89
  %95 = load ptr, ptr %2, align 8, !tbaa !26
  %96 = getelementptr inbounds nuw %struct.Fra_Man_t_, ptr %95, i32 0, i32 7
  %97 = load ptr, ptr %96, align 8, !tbaa !88
  call void @Fra_SmlStop(ptr noundef %97)
  br label %98

98:                                               ; preds = %94, %89
  %99 = load ptr, ptr %2, align 8, !tbaa !26
  %100 = getelementptr inbounds nuw %struct.Fra_Man_t_, ptr %99, i32 0, i32 11
  %101 = load ptr, ptr %100, align 8, !tbaa !89
  %102 = icmp ne ptr %101, null
  br i1 %102, label %103, label %107

103:                                              ; preds = %98
  %104 = load ptr, ptr %2, align 8, !tbaa !26
  %105 = getelementptr inbounds nuw %struct.Fra_Man_t_, ptr %104, i32 0, i32 11
  %106 = load ptr, ptr %105, align 8, !tbaa !89
  call void @Vec_IntFree(ptr noundef %106)
  br label %107

107:                                              ; preds = %103, %98
  %108 = load ptr, ptr %2, align 8, !tbaa !26
  %109 = getelementptr inbounds nuw %struct.Fra_Man_t_, ptr %108, i32 0, i32 12
  %110 = load ptr, ptr %109, align 8, !tbaa !90
  %111 = icmp ne ptr %110, null
  br i1 %111, label %112, label %116

112:                                              ; preds = %107
  %113 = load ptr, ptr %2, align 8, !tbaa !26
  %114 = getelementptr inbounds nuw %struct.Fra_Man_t_, ptr %113, i32 0, i32 12
  %115 = load ptr, ptr %114, align 8, !tbaa !90
  call void @Vec_IntFree(ptr noundef %115)
  br label %116

116:                                              ; preds = %112, %107
  %117 = load ptr, ptr %2, align 8, !tbaa !26
  %118 = getelementptr inbounds nuw %struct.Fra_Man_t_, ptr %117, i32 0, i32 4
  %119 = load ptr, ptr %118, align 8, !tbaa !47
  %120 = icmp ne ptr %119, null
  br i1 %120, label %121, label %127

121:                                              ; preds = %116
  %122 = load ptr, ptr %2, align 8, !tbaa !26
  %123 = getelementptr inbounds nuw %struct.Fra_Man_t_, ptr %122, i32 0, i32 4
  %124 = load ptr, ptr %123, align 8, !tbaa !47
  call void @free(ptr noundef %124) #10
  %125 = load ptr, ptr %2, align 8, !tbaa !26
  %126 = getelementptr inbounds nuw %struct.Fra_Man_t_, ptr %125, i32 0, i32 4
  store ptr null, ptr %126, align 8, !tbaa !47
  br label %128

127:                                              ; preds = %116
  br label %128

128:                                              ; preds = %127, %121
  %129 = load ptr, ptr %2, align 8, !tbaa !26
  %130 = getelementptr inbounds nuw %struct.Fra_Man_t_, ptr %129, i32 0, i32 18
  %131 = load ptr, ptr %130, align 8, !tbaa !69
  %132 = icmp ne ptr %131, null
  br i1 %132, label %133, label %139

133:                                              ; preds = %128
  %134 = load ptr, ptr %2, align 8, !tbaa !26
  %135 = getelementptr inbounds nuw %struct.Fra_Man_t_, ptr %134, i32 0, i32 18
  %136 = load ptr, ptr %135, align 8, !tbaa !69
  call void @free(ptr noundef %136) #10
  %137 = load ptr, ptr %2, align 8, !tbaa !26
  %138 = getelementptr inbounds nuw %struct.Fra_Man_t_, ptr %137, i32 0, i32 18
  store ptr null, ptr %138, align 8, !tbaa !69
  br label %140

139:                                              ; preds = %128
  br label %140

140:                                              ; preds = %139, %133
  %141 = load ptr, ptr %2, align 8, !tbaa !26
  %142 = getelementptr inbounds nuw %struct.Fra_Man_t_, ptr %141, i32 0, i32 19
  %143 = load ptr, ptr %142, align 8, !tbaa !71
  %144 = icmp ne ptr %143, null
  br i1 %144, label %145, label %151

145:                                              ; preds = %140
  %146 = load ptr, ptr %2, align 8, !tbaa !26
  %147 = getelementptr inbounds nuw %struct.Fra_Man_t_, ptr %146, i32 0, i32 19
  %148 = load ptr, ptr %147, align 8, !tbaa !71
  call void @free(ptr noundef %148) #10
  %149 = load ptr, ptr %2, align 8, !tbaa !26
  %150 = getelementptr inbounds nuw %struct.Fra_Man_t_, ptr %149, i32 0, i32 19
  store ptr null, ptr %150, align 8, !tbaa !71
  br label %152

151:                                              ; preds = %140
  br label %152

152:                                              ; preds = %151, %145
  %153 = load ptr, ptr %2, align 8, !tbaa !26
  %154 = getelementptr inbounds nuw %struct.Fra_Man_t_, ptr %153, i32 0, i32 10
  %155 = load ptr, ptr %154, align 8, !tbaa !44
  %156 = icmp ne ptr %155, null
  br i1 %156, label %157, label %163

157:                                              ; preds = %152
  %158 = load ptr, ptr %2, align 8, !tbaa !26
  %159 = getelementptr inbounds nuw %struct.Fra_Man_t_, ptr %158, i32 0, i32 10
  %160 = load ptr, ptr %159, align 8, !tbaa !44
  call void @free(ptr noundef %160) #10
  %161 = load ptr, ptr %2, align 8, !tbaa !26
  %162 = getelementptr inbounds nuw %struct.Fra_Man_t_, ptr %161, i32 0, i32 10
  store ptr null, ptr %162, align 8, !tbaa !44
  br label %164

163:                                              ; preds = %152
  br label %164

164:                                              ; preds = %163, %157
  %165 = load ptr, ptr %2, align 8, !tbaa !26
  %166 = icmp ne ptr %165, null
  br i1 %166, label %167, label %169

167:                                              ; preds = %164
  %168 = load ptr, ptr %2, align 8, !tbaa !26
  call void @free(ptr noundef %168) #10
  store ptr null, ptr %2, align 8, !tbaa !26
  br label %170

169:                                              ; preds = %164
  br label %170

170:                                              ; preds = %169, %167
  ret void
}