; Function Attrs: nounwind uwtable
define void @Fra_ManStop(ptr noundef %0) local_unnamed_addr #2 {
  %2 = load ptr, ptr %0, align 8, !tbaa !19
  %3 = getelementptr inbounds nuw i8, ptr %2, i64 52
  %4 = load i32, ptr %3, align 4, !tbaa !78
  %.not = icmp eq i32 %4, 0
  br i1 %.not, label %6, label %5

5:                                                ; preds = %1
  tail call void @Fra_ManPrint(ptr noundef nonnull %0)
  br label %6

6:                                                ; preds = %5, %1
  %7 = getelementptr inbounds nuw i8, ptr %0, i64 8
  %8 = load ptr, ptr %7, align 8, !tbaa !34
  %.not51 = icmp eq ptr %8, null
  br i1 %.not51, label %20, label %9

9:                                                ; preds = %6
  %10 = getelementptr inbounds nuw i8, ptr %8, i64 328
  %11 = load ptr, ptr %10, align 8, !tbaa !79
  %.not52 = icmp eq ptr %11, null
  br i1 %.not52, label %15, label %12

12:                                               ; preds = %9
  tail call void @free(ptr noundef nonnull %11) #15
  %13 = load ptr, ptr %7, align 8, !tbaa !34
  %14 = getelementptr inbounds nuw i8, ptr %13, i64 328
  store ptr null, ptr %14, align 8, !tbaa !79
  br label %15

15:                                               ; preds = %12, %9
  %16 = phi ptr [ %13, %12 ], [ %8, %9 ]
  %17 = getelementptr inbounds nuw i8, ptr %0, i64 32
  %18 = load ptr, ptr %17, align 8, !tbaa !55
  %19 = getelementptr inbounds nuw i8, ptr %16, i64 328
  store ptr %18, ptr %19, align 8, !tbaa !79
  store ptr null, ptr %17, align 8, !tbaa !55
  br label %20

20:                                               ; preds = %15, %6
  tail call void @Fra_ManClean(ptr noundef nonnull %0, i32 noundef 0)
  %21 = getelementptr inbounds nuw i8, ptr %0, i64 168
  %22 = load ptr, ptr %21, align 8, !tbaa !80
  %.not53 = icmp eq ptr %22, null
  br i1 %.not53, label %27, label %23

23:                                               ; preds = %20
  %24 = getelementptr inbounds nuw i8, ptr %22, i64 8
  %25 = load ptr, ptr %24, align 8, !tbaa !52
  %.not.i = icmp eq ptr %25, null
  br i1 %.not.i, label %Vec_PtrFree.exit, label %26

26:                                               ; preds = %23
  tail call void @free(ptr noundef nonnull %25) #15
  br label %Vec_PtrFree.exit

Vec_PtrFree.exit:                                 ; preds = %23, %26
  tail call void @free(ptr noundef nonnull %22) #15
  br label %27

27:                                               ; preds = %Vec_PtrFree.exit, %20
  %28 = getelementptr inbounds nuw i8, ptr %0, i64 120
  %29 = load ptr, ptr %28, align 8, !tbaa !53
  %.not54 = icmp eq ptr %29, null
  br i1 %.not54, label %34, label %30

30:                                               ; preds = %27
  %31 = getelementptr inbounds nuw i8, ptr %29, i64 8
  %32 = load ptr, ptr %31, align 8, !tbaa !52
  %.not.i64 = icmp eq ptr %32, null
  br i1 %.not.i64, label %Vec_PtrFree.exit65, label %33

33:                                               ; preds = %30
  tail call void @free(ptr noundef nonnull %32) #15
  br label %Vec_PtrFree.exit65

Vec_PtrFree.exit65:                               ; preds = %30, %33
  tail call void @free(ptr noundef nonnull %29) #15
  br label %34

34:                                               ; preds = %Vec_PtrFree.exit65, %27
  %35 = getelementptr inbounds nuw i8, ptr %0, i64 104
  %36 = load ptr, ptr %35, align 8, !tbaa !81
  %.not55 = icmp eq ptr %36, null
  br i1 %.not55, label %38, label %37

37:                                               ; preds = %34
  tail call void @sat_solver_delete(ptr noundef nonnull %36) #15
  br label %38

38:                                               ; preds = %37, %34
  %39 = getelementptr inbounds nuw i8, ptr %0, i64 48
  %40 = load ptr, ptr %39, align 8, !tbaa !54
  %.not56 = icmp eq ptr %40, null
  br i1 %.not56, label %42, label %41

41:                                               ; preds = %38
  tail call void @Fra_ClassesStop(ptr noundef nonnull %40) #15
  br label %42

42:                                               ; preds = %41, %38
  %43 = getelementptr inbounds nuw i8, ptr %0, i64 56
  %44 = load ptr, ptr %43, align 8, !tbaa !82
  %.not57 = icmp eq ptr %44, null
  br i1 %.not57, label %46, label %45

45:                                               ; preds = %42
  tail call void @Fra_SmlStop(ptr noundef nonnull %44) #15
  br label %46

46:                                               ; preds = %45, %42
  %47 = getelementptr inbounds nuw i8, ptr %0, i64 88
  %48 = load ptr, ptr %47, align 8, !tbaa !83
  %.not58 = icmp eq ptr %48, null
  br i1 %.not58, label %53, label %49

49:                                               ; preds = %46
  %50 = getelementptr inbounds nuw i8, ptr %48, i64 8
  %51 = load ptr, ptr %50, align 8, !tbaa !84
  %.not.i66 = icmp eq ptr %51, null
  br i1 %.not.i66, label %Vec_IntFree.exit, label %52

52:                                               ; preds = %49
  tail call void @free(ptr noundef nonnull %51) #15
  br label %Vec_IntFree.exit

Vec_IntFree.exit:                                 ; preds = %49, %52
  tail call void @free(ptr noundef nonnull %48) #15
  br label %53

53:                                               ; preds = %Vec_IntFree.exit, %46
  %54 = getelementptr inbounds nuw i8, ptr %0, i64 96
  %55 = load ptr, ptr %54, align 8, !tbaa !86
  %.not59 = icmp eq ptr %55, null
  br i1 %.not59, label %60, label %56

56:                                               ; preds = %53
  %57 = getelementptr inbounds nuw i8, ptr %55, i64 8
  %58 = load ptr, ptr %57, align 8, !tbaa !84
  %.not.i67 = icmp eq ptr %58, null
  br i1 %.not.i67, label %Vec_IntFree.exit68, label %59

59:                                               ; preds = %56
  tail call void @free(ptr noundef nonnull %58) #15
  br label %Vec_IntFree.exit68

Vec_IntFree.exit68:                               ; preds = %56, %59
  tail call void @free(ptr noundef nonnull %55) #15
  br label %60

60:                                               ; preds = %Vec_IntFree.exit68, %53
  %61 = getelementptr inbounds nuw i8, ptr %0, i64 32
  %62 = load ptr, ptr %61, align 8, !tbaa !55
  %.not60 = icmp eq ptr %62, null
  br i1 %.not60, label %64, label %63

63:                                               ; preds = %60
  tail call void @free(ptr noundef nonnull %62) #15
  store ptr null, ptr %61, align 8, !tbaa !55
  br label %64

64:                                               ; preds = %60, %63
  %65 = getelementptr inbounds nuw i8, ptr %0, i64 144
  %66 = load ptr, ptr %65, align 8, !tbaa !61
  %.not61 = icmp eq ptr %66, null
  br i1 %.not61, label %68, label %67

67:                                               ; preds = %64
  tail call void @free(ptr noundef nonnull %66) #15
  store ptr null, ptr %65, align 8, !tbaa !61
  br label %68

68:                                               ; preds = %64, %67
  %69 = getelementptr inbounds nuw i8, ptr %0, i64 152
  %70 = load ptr, ptr %69, align 8, !tbaa !64
  %.not62 = icmp eq ptr %70, null
  br i1 %.not62, label %72, label %71

71:                                               ; preds = %68
  tail call void @free(ptr noundef nonnull %70) #15
  store ptr null, ptr %69, align 8, !tbaa !64
  br label %72

72:                                               ; preds = %68, %71
  %73 = getelementptr inbounds nuw i8, ptr %0, i64 80
  %74 = load ptr, ptr %73, align 8, !tbaa !50
  %.not63 = icmp eq ptr %74, null
  br i1 %.not63, label %76, label %75

75:                                               ; preds = %72
  tail call void @free(ptr noundef nonnull %74) #15
  br label %76

76:                                               ; preds = %75, %72
  tail call void @free(ptr noundef nonnull %0) #15
  ret void
}